; ModuleID = 'source-C-CXX/46/6064.c'
source_filename = "source-C-CXX/46/6064.c"
target datalayout = "e-m:e-p270:32:32-p271:32:32-p272:64:64-i64:64-f80:128-n8:16:32:64-S128"
target triple = "x86_64-pc-linux-gnu"

@.str = private unnamed_addr constant [3 x i8] c"%d\00", align 1
@.str.1 = private unnamed_addr constant [4 x i8] c"%d \00", align 1

; Function Attrs: nofree nounwind sspstrong uwtable
define dso_local i32 @main() local_unnamed_addr #0 {
  %1 = alloca i32, align 4
  %2 = alloca [100 x i32], align 16
  %3 = alloca i32, align 4
  %4 = bitcast i32* %1 to i8*
  call void @llvm.lifetime.start.p0i8(i64 4, i8* nonnull %4) #3
  %5 = call i32 (i8*, ...) @__isoc99_scanf(i8* getelementptr inbounds ([3 x i8], [3 x i8]* @.str, i64 0, i64 0), i32* nonnull %1)
  %6 = bitcast [100 x i32]* %2 to i8*
  call void @llvm.lifetime.start.p0i8(i64 400, i8* nonnull %6) #3
  %7 = load i32, i32* %1, align 4, !tbaa !5
  %8 = icmp sgt i32 %7, 0
  br i1 %8, label %18, label %9

9:                                                ; preds = %18, %0
  %10 = phi i32 [ %7, %0 ], [ %23, %18 ]
  %11 = sdiv i32 %10, 2
  %12 = icmp sgt i32 %10, -2
  %13 = icmp sgt i32 %10, %11
  %14 = and i1 %12, %13
  br i1 %14, label %15, label %26

15:                                               ; preds = %9
  %16 = sext i32 %10 to i64
  %17 = sext i32 %11 to i64
  br label %31

18:                                               ; preds = %0, %18
  %19 = phi i64 [ %22, %18 ], [ 0, %0 ]
  %20 = getelementptr inbounds [100 x i32], [100 x i32]* %2, i64 0, i64 %19
  %21 = call i32 (i8*, ...) @__isoc99_scanf(i8* getelementptr inbounds ([3 x i8], [3 x i8]* @.str, i64 0, i64 0), i32* nonnull %20)
  %22 = add nuw nsw i64 %19, 1
  %23 = load i32, i32* %1, align 4, !tbaa !5
  %24 = sext i32 %23 to i64
  %25 = icmp slt i64 %22, %24
  br i1 %25, label %18, label %9, !llvm.loop !9

26:                                               ; preds = %31, %9
  %27 = icmp sgt i32 %10, 1
  br i1 %27, label %43, label %28

28:                                               ; preds = %26
  %29 = add nsw i32 %10, -1
  %30 = sext i32 %29 to i64
  br label %53

31:                                               ; preds = %15, %31
  %32 = phi i64 [ 0, %15 ], [ %39, %31 ]
  %33 = phi i64 [ %16, %15 ], [ %34, %31 ]
  %34 = add nsw i64 %33, -1
  %35 = getelementptr inbounds [100 x i32], [100 x i32]* %2, i64 0, i64 %32
  %36 = load i32, i32* %35, align 4, !tbaa !5
  %37 = getelementptr inbounds [100 x i32], [100 x i32]* %2, i64 0, i64 %34
  %38 = load i32, i32* %37, align 4, !tbaa !5
  store i32 %38, i32* %35, align 4, !tbaa !5
  store i32 %36, i32* %37, align 4, !tbaa !5
  %39 = add nuw nsw i64 %32, 1
  %40 = icmp slt i64 %32, %17
  %41 = icmp sgt i64 %34, %17
  %42 = select i1 %40, i1 %41, i1 false
  br i1 %42, label %31, label %26, !llvm.loop !11

43:                                               ; preds = %26, %43
  %44 = phi i64 [ %48, %43 ], [ 0, %26 ]
  %45 = getelementptr inbounds [100 x i32], [100 x i32]* %2, i64 0, i64 %44
  %46 = load i32, i32* %45, align 4, !tbaa !5
  %47 = call i32 (i8*, ...) @printf(i8* nonnull dereferenceable(1) getelementptr inbounds ([4 x i8], [4 x i8]* @.str.1, i64 0, i64 0), i32 %46)
  %48 = add nuw nsw i64 %44, 1
  %49 = load i32, i32* %1, align 4, !tbaa !5
  %50 = add nsw i32 %49, -1
  %51 = sext i32 %50 to i64
  %52 = icmp slt i64 %48, %51
  br i1 %52, label %43, label %53, !llvm.loop !12

53:                                               ; preds = %43, %28
  %54 = phi i64 [ %30, %28 ], [ %51, %43 ]
  %55 = getelementptr inbounds [100 x i32], [100 x i32]* %2, i64 0, i64 %54
  %56 = load i32, i32* %55, align 4, !tbaa !5
  %57 = call i32 (i8*, ...) @printf(i8* nonnull dereferenceable(1) getelementptr inbounds ([3 x i8], [3 x i8]* @.str, i64 0, i64 0), i32 %56)
  %58 = bitcast i32* %3 to i8*
  call void @llvm.lifetime.start.p0i8(i64 4, i8* nonnull %58) #3
  %59 = call i32 (i8*, ...) @__isoc99_scanf(i8* getelementptr inbounds ([3 x i8], [3 x i8]* @.str, i64 0, i64 0), i32* nonnull %3)
  call void @llvm.lifetime.end.p0i8(i64 4, i8* nonnull %58) #3
  call void @llvm.lifetime.end.p0i8(i64 400, i8* nonnull %6) #3
  call void @llvm.lifetime.end.p0i8(i64 4, i8* nonnull %4) #3
  ret i32 0
}

; Function Attrs: argmemonly mustprogress nofree nosync nounwind willreturn
declare void @llvm.lifetime.start.p0i8(i64 immarg, i8* nocapture) #1

; Function Attrs: nofree nounwind
declare noundef i32 @__isoc99_scanf(i8* nocapture noundef readonly, ...) local_unnamed_addr #2

; Function Attrs: nofree nounwind
declare noundef i32 @printf(i8* nocapture noundef readonly, ...) local_unnamed_addr #2

; Function Attrs: argmemonly mustprogress nofree nosync nounwind willreturn
declare void @llvm.lifetime.end.p0i8(i64 immarg, i8* nocapture) #1


!llvm.module.flags = !{!0, !1, !2, !3}
!llvm.ident = !{!4}

!0 = !{i32 1, !"wchar_size", i32 4}
!1 = !{i32 7, !"PIC Level", i32 2}
!2 = !{i32 7, !"PIE Level", i32 2}
!3 = !{i32 7, !"uwtable", i32 1}
!4 = !{!"clang version 13.0.0"}
!5 = !{!6, !6, i64 0}
!6 = !{!"int", !7, i64 0}
!7 = !{!"omnipotent char", !8, i64 0}
!8 = !{!"Simple C/C++ TBAA"}
!9 = distinct !{!9, !10}
!10 = !{!"llvm.loop.mustprogress"}
!11 = distinct !{!11, !10}
!12 = distinct !{!12, !10}
